target datalayout = "e-m:e-p270:32:32-p271:32:32-p272:64:64-i64:64-i128:128-f80:128-n8:16:32:64-S128"
target triple = "x86_64-pc-linux-gnu"

%struct.PLpgSQL_execstate = type { ptr, ptr, ptr, i64, i8, i32, i32, i8, i8, i8, i8, ptr, ptr, ptr, ptr, ptr, ptr, ptr, i32, i32, ptr, ptr, ptr, ptr, ptr, ptr, ptr, ptr, ptr, ptr, i64, ptr, ptr, ptr, ptr, ptr }
%struct.ExprContext = type { i32, ptr, ptr, ptr, ptr, ptr, ptr, ptr, ptr, ptr, i64, i8, i64, i8, ptr, ptr, ptr, ptr }
%struct.SPIParseOpenOptions = type { ptr, i32, i8 }

@.str.2 = private unnamed_addr constant [11 x i8] c"plpgsql-18\00", align 1
@.str.4 = private unnamed_addr constant [10 x i8] c"pl_exec.c\00", align 1
@CurrentMemoryContext = external global ptr, align 8
@SPI_result = external global i32, align 4
@.str.38 = private unnamed_addr constant [50 x i8] c"could not open implicit cursor for query \22%s\22: %s\00", align 1
@.str.41 = private unnamed_addr constant [27 x i8] c"PLpgSQL per-statement data\00", align 1
@.str.96 = private unnamed_addr constant [41 x i8] c"query string argument of EXECUTE is null\00", align 1
@__func__.exec_dynquery_with_params = private unnamed_addr constant [26 x i8] c"exec_dynquery_with_params\00", align 1

; Function Attrs: inlinehint nounwind uwtable
define internal ptr @MemoryContextSwitchTo(ptr noundef %0) #2 {
  %2 = alloca ptr, align 8
  %3 = alloca ptr, align 8
  store ptr %0, ptr %2, align 8
  call void @llvm.lifetime.start.p0(i64 8, ptr %3) #12
  %4 = load ptr, ptr @CurrentMemoryContext, align 8
  store ptr %4, ptr %3, align 8
  %5 = load ptr, ptr %2, align 8
  store ptr %5, ptr @CurrentMemoryContext, align 8
  %6 = load ptr, ptr %3, align 8
  call void @llvm.lifetime.end.p0(i64 8, ptr %3) #12
  ret ptr %6
}

; Function Attrs: nounwind uwtable
define internal void @exec_eval_cleanup(ptr noundef %0) #0 {
  %2 = alloca ptr, align 8
  store ptr %0, ptr %2, align 8
  %3 = load ptr, ptr %2, align 8
  %4 = getelementptr inbounds nuw %struct.PLpgSQL_execstate, ptr %3, i32 0, i32 29
  %5 = load ptr, ptr %4, align 8
  %6 = icmp ne ptr %5, null
  br i1 %6, label %7, label %11

7:                                                ; preds = %1
  %8 = load ptr, ptr %2, align 8
  %9 = getelementptr inbounds nuw %struct.PLpgSQL_execstate, ptr %8, i32 0, i32 29
  %10 = load ptr, ptr %9, align 8
  call void @SPI_freetuptable(ptr noundef %10)
  br label %11

11:                                               ; preds = %7, %1
  %12 = load ptr, ptr %2, align 8
  %13 = getelementptr inbounds nuw %struct.PLpgSQL_execstate, ptr %12, i32 0, i32 29
  store ptr null, ptr %13, align 8
  %14 = load ptr, ptr %2, align 8
  %15 = getelementptr inbounds nuw %struct.PLpgSQL_execstate, ptr %14, i32 0, i32 31
  %16 = load ptr, ptr %15, align 8
  %17 = icmp ne ptr %16, null
  br i1 %17, label %18, label %24

18:                                               ; preds = %11
  %19 = load ptr, ptr %2, align 8
  %20 = getelementptr inbounds nuw %struct.PLpgSQL_execstate, ptr %19, i32 0, i32 31
  %21 = load ptr, ptr %20, align 8
  %22 = getelementptr inbounds nuw %struct.ExprContext, ptr %21, i32 0, i32 5
  %23 = load ptr, ptr %22, align 8
  call void @MemoryContextReset(ptr noundef %23)
  br label %24

24:                                               ; preds = %18, %11
  ret void
}

; Function Attrs: nounwind uwtable
define internal ptr @convert_value_to_string(ptr noundef %0, i64 noundef %1, i32 noundef %2) #0 {
  %4 = alloca ptr, align 8
  %5 = alloca i64, align 8
  %6 = alloca i32, align 4
  %7 = alloca ptr, align 8
  %8 = alloca ptr, align 8
  %9 = alloca i32, align 4
  %10 = alloca i8, align 1
  store ptr %0, ptr %4, align 8
  store i64 %1, ptr %5, align 8
  store i32 %2, ptr %6, align 4
  call void @llvm.lifetime.start.p0(i64 8, ptr %7) #12
  call void @llvm.lifetime.start.p0(i64 8, ptr %8) #12
  call void @llvm.lifetime.start.p0(i64 4, ptr %9) #12
  call void @llvm.lifetime.start.p0(i64 1, ptr %10) #12
  %11 = load ptr, ptr %4, align 8
  %12 = getelementptr inbounds nuw %struct.PLpgSQL_execstate, ptr %11, i32 0, i32 31
  %13 = load ptr, ptr %12, align 8
  %14 = getelementptr inbounds nuw %struct.ExprContext, ptr %13, i32 0, i32 5
  %15 = load ptr, ptr %14, align 8
  %16 = call ptr @MemoryContextSwitchTo(ptr noundef %15)
  store ptr %16, ptr %8, align 8
  %17 = load i32, ptr %6, align 4
  call void @getTypeOutputInfo(i32 noundef %17, ptr noundef %9, ptr noundef %10)
  %18 = load i32, ptr %9, align 4
  %19 = load i64, ptr %5, align 8
  %20 = call ptr @OidOutputFunctionCall(i32 noundef %18, i64 noundef %19)
  store ptr %20, ptr %7, align 8
  %21 = load ptr, ptr %8, align 8
  %22 = call ptr @MemoryContextSwitchTo(ptr noundef %21)
  %23 = load ptr, ptr %7, align 8
  call void @llvm.lifetime.end.p0(i64 1, ptr %10) #12
  call void @llvm.lifetime.end.p0(i64 4, ptr %9) #12
  call void @llvm.lifetime.end.p0(i64 8, ptr %8) #12
  call void @llvm.lifetime.end.p0(i64 8, ptr %7) #12
  ret ptr %23
}

; Function Attrs: nounwind uwtable
define internal ptr @get_stmt_mcontext(ptr noundef %0) #0 {
  %2 = alloca ptr, align 8
  %3 = alloca i32, align 4
  store ptr %0, ptr %2, align 8
  %4 = load ptr, ptr %2, align 8
  %5 = getelementptr inbounds nuw %struct.PLpgSQL_execstate, ptr %4, i32 0, i32 27
  %6 = load ptr, ptr %5, align 8
  %7 = icmp eq ptr %6, null
  br i1 %7, label %8, label %17

8:                                                ; preds = %1
  br label %9

9:                                                ; preds = %8
  br label %10

10:                                               ; preds = %9
  store i32 1, ptr %3, align 4
  %11 = load ptr, ptr %2, align 8
  %12 = getelementptr inbounds nuw %struct.PLpgSQL_execstate, ptr %11, i32 0, i32 28
  %13 = load ptr, ptr %12, align 8
  %14 = call ptr @AllocSetContextCreateInternal(ptr noundef %13, ptr noundef @.str.41, i64 noundef 0, i64 noundef 8192, i64 noundef 8388608)
  %15 = load ptr, ptr %2, align 8
  %16 = getelementptr inbounds nuw %struct.PLpgSQL_execstate, ptr %15, i32 0, i32 27
  store ptr %14, ptr %16, align 8
  br label %17

17:                                               ; preds = %10, %1
  %18 = load ptr, ptr %2, align 8
  %19 = getelementptr inbounds nuw %struct.PLpgSQL_execstate, ptr %18, i32 0, i32 27
  %20 = load ptr, ptr %19, align 8
  ret ptr %20
}

; Function Attrs: nounwind uwtable
define internal ptr @exec_dynquery_with_params(ptr noundef %0, ptr noundef %1, ptr noundef %2, ptr noundef %3, i32 noundef %4) #0 {
  %6 = alloca ptr, align 8
  %7 = alloca ptr, align 8
  %8 = alloca ptr, align 8
  %9 = alloca ptr, align 8
  %10 = alloca i32, align 4
  %11 = alloca ptr, align 8
  %12 = alloca i64, align 8
  %13 = alloca i8, align 1
  %14 = alloca i32, align 4
  %15 = alloca i32, align 4
  %16 = alloca ptr, align 8
  %17 = alloca %struct.SPIParseOpenOptions, align 8
  %18 = alloca ptr, align 8
  store ptr %0, ptr %6, align 8
  store ptr %1, ptr %7, align 8
  store ptr %2, ptr %8, align 8
  store ptr %3, ptr %9, align 8
  store i32 %4, ptr %10, align 4
  call void @llvm.lifetime.start.p0(i64 8, ptr %11) #12
  call void @llvm.lifetime.start.p0(i64 8, ptr %12) #12
  call void @llvm.lifetime.start.p0(i64 1, ptr %13) #12
  call void @llvm.lifetime.start.p0(i64 4, ptr %14) #12
  call void @llvm.lifetime.start.p0(i64 4, ptr %15) #12
  call void @llvm.lifetime.start.p0(i64 8, ptr %16) #12
  call void @llvm.lifetime.start.p0(i64 16, ptr %17) #12
  call void @llvm.lifetime.start.p0(i64 8, ptr %18) #12
  %19 = load ptr, ptr %6, align 8
  %20 = call ptr @get_stmt_mcontext(ptr noundef %19)
  store ptr %20, ptr %18, align 8
  %21 = load ptr, ptr %6, align 8
  %22 = load ptr, ptr %7, align 8
  %23 = call i64 @exec_eval_expr(ptr noundef %21, ptr noundef %22, ptr noundef %13, ptr noundef %14, ptr noundef %15)
  store i64 %23, ptr %12, align 8
  %24 = load i8, ptr %13, align 1, !range !3, !noundef !4
  %25 = trunc i8 %24 to i1
  br i1 %25, label %26, label %38

26:                                               ; preds = %5
  br label %27

27:                                               ; preds = %26
  br i1 true, label %28, label %30

28:                                               ; preds = %27
  %29 = call zeroext i1 @errstart_cold(i32 noundef 21, ptr noundef @.str.2) #13
  br i1 %29, label %32, label %35

30:                                               ; preds = %27
  %31 = call zeroext i1 @errstart(i32 noundef 21, ptr noundef @.str.2)
  br i1 %31, label %32, label %35

32:                                               ; preds = %30, %28
  %33 = call i32 @errcode(i32 noundef 67108994)
  %34 = call i32 (ptr, ...) @errmsg(ptr noundef @.str.96)
  call void @errfinish(ptr noundef @.str.4, i32 noundef 8983, ptr noundef @__func__.exec_dynquery_with_params)
  br label %35

35:                                               ; preds = %32, %30, %28
  unreachable

36:                                               ; No predecessors!
  br label %37

37:                                               ; preds = %36
  br label %38

38:                                               ; preds = %37, %5
  %39 = load ptr, ptr %6, align 8
  %40 = load i64, ptr %12, align 8
  %41 = load i32, ptr %14, align 4
  %42 = call ptr @convert_value_to_string(ptr noundef %39, i64 noundef %40, i32 noundef %41)
  store ptr %42, ptr %16, align 8
  %43 = load ptr, ptr %18, align 8
  %44 = load ptr, ptr %16, align 8
  %45 = call ptr @MemoryContextStrdup(ptr noundef %43, ptr noundef %44)
  store ptr %45, ptr %16, align 8
  %46 = load ptr, ptr %6, align 8
  call void @exec_eval_cleanup(ptr noundef %46)
  call void @llvm.memset.p0.i64(ptr align 8 %17, i8 0, i64 16, i1 false)
  %47 = load ptr, ptr %6, align 8
  %48 = load ptr, ptr %8, align 8
  %49 = call ptr @exec_eval_using_params(ptr noundef %47, ptr noundef %48)
  %50 = getelementptr inbounds nuw %struct.SPIParseOpenOptions, ptr %17, i32 0, i32 0
  store ptr %49, ptr %50, align 8
  %51 = load i32, ptr %10, align 4
  %52 = getelementptr inbounds nuw %struct.SPIParseOpenOptions, ptr %17, i32 0, i32 1
  store i32 %51, ptr %52, align 8
  %53 = load ptr, ptr %6, align 8
  %54 = getelementptr inbounds nuw %struct.PLpgSQL_execstate, ptr %53, i32 0, i32 9
  %55 = load i8, ptr %54, align 2, !range !3, !noundef !4
  %56 = trunc i8 %55 to i1
  %57 = getelementptr inbounds nuw %struct.SPIParseOpenOptions, ptr %17, i32 0, i32 2
  %58 = zext i1 %56 to i8
  store i8 %58, ptr %57, align 4
  %59 = load ptr, ptr %9, align 8
  %60 = load ptr, ptr %16, align 8
  %61 = call ptr @SPI_cursor_parse_open(ptr noundef %59, ptr noundef %60, ptr noundef %17)
  store ptr %61, ptr %11, align 8
  %62 = load ptr, ptr %11, align 8
  %63 = icmp eq ptr %62, null
  br i1 %63, label %64, label %78

64:                                               ; preds = %38
  br label %65

65:                                               ; preds = %64
  br i1 true, label %66, label %68

66:                                               ; preds = %65
  %67 = call zeroext i1 @errstart_cold(i32 noundef 21, ptr noundef @.str.2) #13
  br i1 %67, label %70, label %75

68:                                               ; preds = %65
  %69 = call zeroext i1 @errstart(i32 noundef 21, ptr noundef @.str.2)
  br i1 %69, label %70, label %75

70:                                               ; preds = %68, %66
  %71 = load ptr, ptr %16, align 8
  %72 = load i32, ptr @SPI_result, align 4
  %73 = call ptr @SPI_result_code_string(i32 noundef %72)
  %74 = call i32 (ptr, ...) @errmsg_internal(ptr noundef @.str.38, ptr noundef %71, ptr noundef %73)
  call void @errfinish(ptr noundef @.str.4, i32 noundef 9007, ptr noundef @__func__.exec_dynquery_with_params)
  br label %75

75:                                               ; preds = %70, %68, %66
  unreachable

76:                                               ; No predecessors!
  br label %77

77:                                               ; preds = %76
  br label %78

78:                                               ; preds = %77, %38
  %79 = load ptr, ptr %18, align 8
  call void @MemoryContextReset(ptr noundef %79)
  %80 = load ptr, ptr %11, align 8
  call void @llvm.lifetime.end.p0(i64 8, ptr %18) #12
  call void @llvm.lifetime.end.p0(i64 16, ptr %17) #12
  call void @llvm.lifetime.end.p0(i64 8, ptr %16) #12
  call void @llvm.lifetime.end.p0(i64 4, ptr %15) #12
  call void @llvm.lifetime.end.p0(i64 4, ptr %14) #12
  call void @llvm.lifetime.end.p0(i64 1, ptr %13) #12
  call void @llvm.lifetime.end.p0(i64 8, ptr %12) #12
  call void @llvm.lifetime.end.p0(i64 8, ptr %11) #12
  ret ptr %80
}