; Function Attrs: nounwind uwtable
define internal fastcc nonnull ptr @exec_dynquery_with_params(ptr noundef nonnull captures(none) %0, ptr noundef %1, ptr noundef captures(address_is_null) %2, ptr noundef %3, i32 noundef %4) unnamed_addr #0 {
  %6 = alloca i32, align 4
  %7 = alloca i8, align 1
  %8 = alloca i8, align 1
  %9 = alloca i32, align 4
  %10 = alloca i32, align 4
  %11 = alloca %struct.SPIParseOpenOptions, align 8
  call void @llvm.lifetime.start.p0(i64 1, ptr nonnull %8) #12
  call void @llvm.lifetime.start.p0(i64 4, ptr nonnull %9) #12
  call void @llvm.lifetime.start.p0(i64 4, ptr nonnull %10) #12
  call void @llvm.lifetime.start.p0(i64 16, ptr nonnull %11) #12
  %12 = getelementptr inbounds nuw i8, ptr %0, i64 168
  %13 = load ptr, ptr %12, align 8
  %14 = icmp eq ptr %13, null
  br i1 %14, label %15, label %get_stmt_mcontext.exit

15:                                               ; preds = %5
  %16 = getelementptr inbounds nuw i8, ptr %0, i64 176
  %17 = load ptr, ptr %16, align 8
  %18 = tail call ptr @AllocSetContextCreateInternal(ptr noundef %17, ptr noundef nonnull @.str.41, i64 noundef 0, i64 noundef 8192, i64 noundef 8388608) #12
  store ptr %18, ptr %12, align 8
  br label %get_stmt_mcontext.exit

get_stmt_mcontext.exit:                           ; preds = %5, %15
  %19 = phi ptr [ %18, %15 ], [ %13, %5 ]
  %20 = call fastcc i64 @exec_eval_expr(ptr noundef nonnull %0, ptr noundef %1, ptr noundef nonnull %8, ptr noundef nonnull %9, ptr noundef %10)
  %21 = load i8, ptr %8, align 1, !range !3, !noundef !4
  %22 = trunc nuw i8 %21 to i1
  br i1 %22, label %23, label %27

23:                                               ; preds = %get_stmt_mcontext.exit
  %24 = call zeroext i1 @errstart_cold(i32 noundef 21, ptr noundef nonnull @.str.2) #13
  call void @llvm.assume(i1 %24)
  %25 = call i32 @errcode(i32 noundef 67108994) #12
  %26 = call i32 (ptr, ...) @errmsg(ptr noundef nonnull @.str.96) #12
  call void @errfinish(ptr noundef nonnull @.str.4, i32 noundef 8983, ptr noundef nonnull @__func__.exec_dynquery_with_params) #12
  unreachable

27:                                               ; preds = %get_stmt_mcontext.exit
  %28 = load i32, ptr %9, align 4
  %29 = getelementptr i8, ptr %0, i64 200
  %.val = load ptr, ptr %29, align 8
  %30 = getelementptr i8, ptr %.val, i64 40
  %.val.val = load ptr, ptr %30, align 8
  call void @llvm.lifetime.start.p0(i64 4, ptr nonnull %6) #12
  call void @llvm.lifetime.start.p0(i64 1, ptr nonnull %7) #12
  %31 = load ptr, ptr @CurrentMemoryContext, align 8
  store ptr %.val.val, ptr @CurrentMemoryContext, align 8
  call void @getTypeOutputInfo(i32 noundef %28, ptr noundef nonnull %6, ptr noundef nonnull %7) #12
  %32 = load i32, ptr %6, align 4
  %33 = call ptr @OidOutputFunctionCall(i32 noundef %32, i64 noundef %20) #12
  store ptr %31, ptr @CurrentMemoryContext, align 8
  call void @llvm.lifetime.end.p0(i64 1, ptr nonnull %7) #12
  call void @llvm.lifetime.end.p0(i64 4, ptr nonnull %6) #12
  %34 = call ptr @MemoryContextStrdup(ptr noundef %19, ptr noundef %33) #12
  %35 = getelementptr inbounds nuw i8, ptr %0, i64 184
  %36 = load ptr, ptr %35, align 8
  %.not.i = icmp eq ptr %36, null
  br i1 %.not.i, label %38, label %37

37:                                               ; preds = %27
  call void @SPI_freetuptable(ptr noundef nonnull %36) #12
  br label %38

38:                                               ; preds = %37, %27
  store ptr null, ptr %35, align 8
  %39 = load ptr, ptr %29, align 8
  %.not6.i = icmp eq ptr %39, null
  br i1 %.not6.i, label %exec_eval_cleanup.exit, label %40

40:                                               ; preds = %38
  %41 = getelementptr inbounds nuw i8, ptr %39, i64 40
  %42 = load ptr, ptr %41, align 8
  call void @MemoryContextReset(ptr noundef %42) #12
  br label %exec_eval_cleanup.exit

exec_eval_cleanup.exit:                           ; preds = %38, %40
  %43 = getelementptr inbounds nuw i8, ptr %11, i64 8
  store i64 0, ptr %43, align 8
  %44 = call fastcc ptr @exec_eval_using_params(ptr noundef %0, ptr noundef %2)
  store ptr %44, ptr %11, align 8
  %45 = getelementptr inbounds nuw i8, ptr %11, i64 8
  store i32 %4, ptr %45, align 8
  %46 = getelementptr inbounds nuw i8, ptr %0, i64 46
  %47 = load i8, ptr %46, align 2, !range !3, !noundef !4
  %48 = getelementptr inbounds nuw i8, ptr %11, i64 12
  store i8 %47, ptr %48, align 4
  %49 = call ptr @SPI_cursor_parse_open(ptr noundef %3, ptr noundef %34, ptr noundef nonnull %11) #12
  %50 = icmp eq ptr %49, null
  br i1 %50, label %51, label %56

51:                                               ; preds = %exec_eval_cleanup.exit
  %52 = call zeroext i1 @errstart_cold(i32 noundef 21, ptr noundef nonnull @.str.2) #13
  call void @llvm.assume(i1 %52)
  %53 = load i32, ptr @SPI_result, align 4
  %54 = call ptr @SPI_result_code_string(i32 noundef %53) #12
  %55 = call i32 (ptr, ...) @errmsg_internal(ptr noundef nonnull @.str.38, ptr noundef %34, ptr noundef %54) #12
  call void @errfinish(ptr noundef nonnull @.str.4, i32 noundef 9007, ptr noundef nonnull @__func__.exec_dynquery_with_params) #12
  unreachable

56:                                               ; preds = %exec_eval_cleanup.exit
  call void @MemoryContextReset(ptr noundef %19) #12
  call void @llvm.lifetime.end.p0(i64 16, ptr nonnull %11) #12
  call void @llvm.lifetime.end.p0(i64 4, ptr nonnull %10) #12
  call void @llvm.lifetime.end.p0(i64 4, ptr nonnull %9) #12
  call void @llvm.lifetime.end.p0(i64 1, ptr nonnull %8) #12
  ret ptr %49
}